target datalayout = "e-m:e-p270:32:32-p271:32:32-p272:64:64-i64:64-i128:128-f80:128-n8:16:32:64-S128"
target triple = "x86_64-pc-linux-gnu"

; Function Attrs: mustprogress uwtable
define dso_local noundef ptr @_Z15luaL_checkudataP9lua_StateiPKc(ptr noundef %0, i32 noundef %1, ptr noundef %2) #3 {
  %4 = alloca ptr, align 8
  %5 = alloca i32, align 4
  %6 = alloca ptr, align 8
  %7 = alloca ptr, align 8
  store ptr %0, ptr %4, align 8
  store i32 %1, ptr %5, align 4
  store ptr %2, ptr %6, align 8
  %8 = load ptr, ptr %4, align 8
  %9 = load i32, ptr %5, align 4
  %10 = call noundef ptr @_Z14lua_touserdataP9lua_Statei(ptr noundef %8, i32 noundef %9)
  store ptr %10, ptr %7, align 8
  %11 = load ptr, ptr %7, align 8
  %12 = icmp ne ptr %11, null
  br i1 %12, label %13, label %30

13:                                               ; preds = %3
  %14 = load ptr, ptr %4, align 8
  %15 = load i32, ptr %5, align 4
  %16 = call noundef i32 @_Z16lua_getmetatableP9lua_Statei(ptr noundef %14, i32 noundef %15)
  %17 = icmp ne i32 %16, 0
  br i1 %17, label %18, label %29

18:                                               ; preds = %13
  %19 = load ptr, ptr %4, align 8
  %20 = load ptr, ptr %6, align 8
  %21 = call noundef i32 @_Z12lua_getfieldP9lua_StateiPKc(ptr noundef %19, i32 noundef -10000, ptr noundef %20)
  %22 = load ptr, ptr %4, align 8
  %23 = call noundef i32 @_Z12lua_rawequalP9lua_Stateii(ptr noundef %22, i32 noundef -1, i32 noundef -2)
  %24 = icmp ne i32 %23, 0
  br i1 %24, label %25, label %28

25:                                               ; preds = %18
  %26 = load ptr, ptr %4, align 8
  call void @_Z10lua_settopP9lua_Statei(ptr noundef %26, i32 noundef -3)
  %27 = load ptr, ptr %7, align 8
  ret ptr %27

28:                                               ; preds = %18
  br label %29

29:                                               ; preds = %28, %13
  br label %30

30:                                               ; preds = %29, %3
  %31 = load ptr, ptr %4, align 8
  %32 = load i32, ptr %5, align 4
  %33 = load ptr, ptr %6, align 8
  call void @_Z15luaL_typeerrorLP9lua_StateiPKc(ptr noundef %31, i32 noundef %32, ptr noundef %33) #8
  unreachable
}