; Function Attrs: mustprogress uwtable
define dso_local noundef ptr @_Z15luaL_checkudataP9lua_StateiPKc(ptr noundef %0, i32 noundef %1, ptr noundef %2) local_unnamed_addr #2 {
  %4 = tail call noundef ptr @_Z14lua_touserdataP9lua_Statei(ptr noundef %0, i32 noundef %1)
  %.not = icmp eq ptr %4, null
  br i1 %.not, label %11, label %5

5:                                                ; preds = %3
  %6 = tail call noundef i32 @_Z16lua_getmetatableP9lua_Statei(ptr noundef %0, i32 noundef %1)
  %.not12 = icmp eq i32 %6, 0
  br i1 %.not12, label %11, label %7

7:                                                ; preds = %5
  %8 = tail call noundef i32 @_Z12lua_getfieldP9lua_StateiPKc(ptr noundef %0, i32 noundef -10000, ptr noundef %2)
  %9 = tail call noundef i32 @_Z12lua_rawequalP9lua_Stateii(ptr noundef %0, i32 noundef -1, i32 noundef -2)
  %.not13 = icmp eq i32 %9, 0
  br i1 %.not13, label %11, label %10

10:                                               ; preds = %7
  tail call void @_Z10lua_settopP9lua_Statei(ptr noundef %0, i32 noundef -3)
  ret ptr %4

11:                                               ; preds = %5, %7, %3
  tail call void @_Z15luaL_typeerrorLP9lua_StateiPKc(ptr noundef %0, i32 noundef %1, ptr noundef %2) #11
  unreachable
}